; ModuleID = '32/279.c'
source_filename = "32/279.c"
target datalayout = "e-m:e-p270:32:32-p271:32:32-p272:64:64-i64:64-f80:128-n8:16:32:64-S128"
target triple = "x86_64-pc-linux-gnu"

@flag = dso_local global i32 0, align 4
@.str = private unnamed_addr constant [3 x i8] c"%d\00", align 1
@.str.1 = private unnamed_addr constant [5 x i8] c"%s%s\00", align 1
@.str.2 = private unnamed_addr constant [2 x i8] c"\0A\00", align 1
@.str.3 = private unnamed_addr constant [4 x i8] c"%s\0A\00", align 1

; Function Attrs: noinline nounwind uwtable
define dso_local signext i8 @minus(i8 signext %0, i8 signext %1) #0 {
  %3 = alloca i8, align 1
  %4 = alloca i8, align 1
  %5 = alloca i32, align 4
  store i8 %0, i8* %3, align 1
  store i8 %1, i8* %4, align 1
  %6 = load i8, i8* %3, align 1
  %7 = sext i8 %6 to i32
  %8 = load i8, i8* %4, align 1
  %9 = sext i8 %8 to i32
  %10 = icmp sge i32 %7, %9
  br i1 %10, label %11, label %18

11:                                               ; preds = %2
  %12 = load i8, i8* %3, align 1
  %13 = sext i8 %12 to i32
  %14 = load i8, i8* %4, align 1
  %15 = sext i8 %14 to i32
  %16 = sub nsw i32 %13, %15
  %17 = add nsw i32 %16, 48
  store i32 %17, i32* %5, align 4
  br label %26

18:                                               ; preds = %2
  %19 = load i8, i8* %3, align 1
  %20 = sext i8 %19 to i32
  %21 = load i8, i8* %4, align 1
  %22 = sext i8 %21 to i32
  %23 = sub nsw i32 %20, %22
  %24 = add nsw i32 %23, 10
  %25 = add nsw i32 %24, 48
  store i32 %25, i32* %5, align 4
  store i32 1, i32* @flag, align 4
  br label %26

26:                                               ; preds = %18, %11
  %27 = load i32, i32* %5, align 4
  %28 = trunc i32 %27 to i8
  ret i8 %28
}

; Function Attrs: noinline nounwind uwtable
define dso_local void @main() #0 {
  %1 = alloca [100 x i8], align 16
  %2 = alloca [100 x i8], align 16
  %3 = alloca i32, align 4
  %4 = alloca i32, align 4
  %5 = alloca i32, align 4
  %6 = alloca i32, align 4
  %7 = alloca i32, align 4
  %8 = alloca i32, align 4
  %9 = alloca i32, align 4
  %10 = call i32 (i8*, ...) @__isoc99_scanf(i8* getelementptr inbounds ([3 x i8], [3 x i8]* @.str, i64 0, i64 0), i32* %3)
  store i32 1, i32* %4, align 4
  br label %11

11:                                               ; preds = %122, %0
  %12 = load i32, i32* %4, align 4
  %13 = load i32, i32* %3, align 4
  %14 = icmp sle i32 %12, %13
  br i1 %14, label %15, label %125

15:                                               ; preds = %11
  %16 = getelementptr inbounds [100 x i8], [100 x i8]* %1, i64 0, i64 0
  %17 = getelementptr inbounds [100 x i8], [100 x i8]* %2, i64 0, i64 0
  %18 = call i32 (i8*, ...) @__isoc99_scanf(i8* getelementptr inbounds ([5 x i8], [5 x i8]* @.str.1, i64 0, i64 0), i8* %16, i8* %17)
  %19 = call i32 (i8*, ...) @printf(i8* getelementptr inbounds ([2 x i8], [2 x i8]* @.str.2, i64 0, i64 0))
  %20 = getelementptr inbounds [100 x i8], [100 x i8]* %1, i64 0, i64 0
  %21 = call i64 @strlen(i8* %20) #3
  %22 = trunc i64 %21 to i32
  store i32 %22, i32* %7, align 4
  %23 = getelementptr inbounds [100 x i8], [100 x i8]* %2, i64 0, i64 0
  %24 = call i64 @strlen(i8* %23) #3
  %25 = trunc i64 %24 to i32
  store i32 %25, i32* %8, align 4
  store i32 0, i32* %5, align 4
  br label %26

26:                                               ; preds = %116, %15
  %27 = load i32, i32* %5, align 4
  %28 = load i32, i32* %8, align 4
  %29 = icmp slt i32 %27, %28
  br i1 %29, label %30, label %119

30:                                               ; preds = %26
  store i32 0, i32* @flag, align 4
  %31 = load i32, i32* %7, align 4
  %32 = load i32, i32* %5, align 4
  %33 = sub nsw i32 %31, %32
  %34 = sub nsw i32 %33, 1
  %35 = sext i32 %34 to i64
  %36 = getelementptr inbounds [100 x i8], [100 x i8]* %1, i64 0, i64 %35
  %37 = load i8, i8* %36, align 1
  %38 = load i32, i32* %8, align 4
  %39 = load i32, i32* %5, align 4
  %40 = sub nsw i32 %38, %39
  %41 = sub nsw i32 %40, 1
  %42 = sext i32 %41 to i64
  %43 = getelementptr inbounds [100 x i8], [100 x i8]* %2, i64 0, i64 %42
  %44 = load i8, i8* %43, align 1
  %45 = call signext i8 @minus(i8 signext %37, i8 signext %44)
  %46 = load i32, i32* %7, align 4
  %47 = load i32, i32* %5, align 4
  %48 = sub nsw i32 %46, %47
  %49 = sub nsw i32 %48, 1
  %50 = sext i32 %49 to i64
  %51 = getelementptr inbounds [100 x i8], [100 x i8]* %1, i64 0, i64 %50
  store i8 %45, i8* %51, align 1
  %52 = load i32, i32* @flag, align 4
  %53 = icmp ne i32 %52, 0
  br i1 %53, label %54, label %115

54:                                               ; preds = %30
  store i32 1, i32* %6, align 4
  br label %55

55:                                               ; preds = %111, %54
  %56 = load i32, i32* %7, align 4
  %57 = load i32, i32* %5, align 4
  %58 = sub nsw i32 %56, %57
  %59 = sub nsw i32 %58, 1
  %60 = load i32, i32* %6, align 4
  %61 = sub nsw i32 %59, %60
  %62 = sext i32 %61 to i64
  %63 = getelementptr inbounds [100 x i8], [100 x i8]* %1, i64 0, i64 %62
  %64 = load i8, i8* %63, align 1
  %65 = sext i8 %64 to i32
  %66 = icmp ne i32 %65, 48
  br i1 %66, label %67, label %110

67:                                               ; preds = %55
  %68 = load i32, i32* %7, align 4
  %69 = load i32, i32* %5, align 4
  %70 = sub nsw i32 %68, %69
  %71 = sub nsw i32 %70, 1
  %72 = load i32, i32* %6, align 4
  %73 = sub nsw i32 %71, %72
  %74 = sext i32 %73 to i64
  %75 = getelementptr inbounds [100 x i8], [100 x i8]* %1, i64 0, i64 %74
  %76 = load i8, i8* %75, align 1
  %77 = sext i8 %76 to i32
  %78 = sub nsw i32 %77, 1
  %79 = trunc i32 %78 to i8
  %80 = load i32, i32* %7, align 4
  %81 = load i32, i32* %5, align 4
  %82 = sub nsw i32 %80, %81
  %83 = sub nsw i32 %82, 1
  %84 = load i32, i32* %6, align 4
  %85 = sub nsw i32 %83, %84
  %86 = sext i32 %85 to i64
  %87 = getelementptr inbounds [100 x i8], [100 x i8]* %1, i64 0, i64 %86
  store i8 %79, i8* %87, align 1
  %88 = load i32, i32* %6, align 4
  %89 = icmp sgt i32 %88, 1
  br i1 %89, label %90, label %109

90:                                               ; preds = %67
  store i32 1, i32* %9, align 4
  br label %91

91:                                               ; preds = %105, %90
  %92 = load i32, i32* %9, align 4
  %93 = load i32, i32* %6, align 4
  %94 = sub nsw i32 %93, 1
  %95 = icmp sle i32 %92, %94
  br i1 %95, label %96, label %108

96:                                               ; preds = %91
  %97 = load i32, i32* %7, align 4
  %98 = load i32, i32* %5, align 4
  %99 = sub nsw i32 %97, %98
  %100 = sub nsw i32 %99, 1
  %101 = load i32, i32* %9, align 4
  %102 = sub nsw i32 %100, %101
  %103 = sext i32 %102 to i64
  %104 = getelementptr inbounds [100 x i8], [100 x i8]* %1, i64 0, i64 %103
  store i8 57, i8* %104, align 1
  br label %105

105:                                              ; preds = %96
  %106 = load i32, i32* %9, align 4
  %107 = add nsw i32 %106, 1
  store i32 %107, i32* %9, align 4
  br label %91

108:                                              ; preds = %91
  br label %109

109:                                              ; preds = %108, %67
  br label %114

110:                                              ; preds = %55
  br label %111

111:                                              ; preds = %110
  %112 = load i32, i32* %6, align 4
  %113 = add nsw i32 %112, 1
  store i32 %113, i32* %6, align 4
  br label %55

114:                                              ; preds = %109
  br label %115

115:                                              ; preds = %114, %30
  br label %116

116:                                              ; preds = %115
  %117 = load i32, i32* %5, align 4
  %118 = add nsw i32 %117, 1
  store i32 %118, i32* %5, align 4
  br label %26

119:                                              ; preds = %26
  %120 = getelementptr inbounds [100 x i8], [100 x i8]* %1, i64 0, i64 0
  %121 = call i32 (i8*, ...) @printf(i8* getelementptr inbounds ([4 x i8], [4 x i8]* @.str.3, i64 0, i64 0), i8* %120)
  br label %122

122:                                              ; preds = %119
  %123 = load i32, i32* %4, align 4
  %124 = add nsw i32 %123, 1
  store i32 %124, i32* %4, align 4
  br label %11

125:                                              ; preds = %11
  ret void
}

declare dso_local i32 @__isoc99_scanf(i8*, ...) #1

declare dso_local i32 @printf(i8*, ...) #1

; Function Attrs: nounwind readonly
declare dso_local i64 @strlen(i8*) #2


!llvm.module.flags = !{!0}
!llvm.ident = !{!1}

!0 = !{i32 1, !"wchar_size", i32 4}
!1 = !{!"clang version 10.0.0-4ubuntu1 "}
